; ModuleID = '50/2301.c'
source_filename = "50/2301.c"
target datalayout = "e-m:e-p270:32:32-p271:32:32-p272:64:64-i64:64-f80:128-n8:16:32:64-S128"
target triple = "x86_64-pc-linux-gnu"

@__const.main.day = private unnamed_addr constant [12 x i32] [i32 12, i32 43, i32 71, i32 102, i32 132, i32 163, i32 193, i32 224, i32 255, i32 285, i32 316, i32 346], align 16
@.str = private unnamed_addr constant [3 x i8] c"%d\00", align 1
@.str.1 = private unnamed_addr constant [4 x i8] c"%d\0A\00", align 1

; Function Attrs: noinline nounwind uwtable
define dso_local i32 @main() #0 {
  %1 = alloca i32, align 4
  %2 = alloca i32, align 4
  %3 = alloca [12 x i32], align 16
  %4 = alloca [12 x i32], align 16
  %5 = alloca i32, align 4
  %6 = alloca i32, align 4
  store i32 0, i32* %1, align 4
  %7 = bitcast [12 x i32]* %4 to i8*
  call void @llvm.memcpy.p0i8.p0i8.i64(i8* align 16 %7, i8* align 16 bitcast ([12 x i32]* @__const.main.day to i8*), i64 48, i1 false)
  %8 = call i32 (i8*, ...) @__isoc99_scanf(i8* getelementptr inbounds ([3 x i8], [3 x i8]* @.str, i64 0, i64 0), i32* %2)
  store i32 0, i32* %6, align 4
  br label %9

9:                                                ; preds = %21, %0
  %10 = load i32, i32* %6, align 4
  %11 = icmp slt i32 %10, 12
  br i1 %11, label %12, label %24

12:                                               ; preds = %9
  %13 = load i32, i32* %6, align 4
  %14 = sext i32 %13 to i64
  %15 = getelementptr inbounds [12 x i32], [12 x i32]* %4, i64 0, i64 %14
  %16 = load i32, i32* %15, align 4
  %17 = srem i32 %16, 7
  %18 = load i32, i32* %6, align 4
  %19 = sext i32 %18 to i64
  %20 = getelementptr inbounds [12 x i32], [12 x i32]* %3, i64 0, i64 %19
  store i32 %17, i32* %20, align 4
  br label %21

21:                                               ; preds = %12
  %22 = load i32, i32* %6, align 4
  %23 = add nsw i32 %22, 1
  store i32 %23, i32* %6, align 4
  br label %9

24:                                               ; preds = %9
  store i32 0, i32* %6, align 4
  br label %25

25:                                               ; preds = %58, %24
  %26 = load i32, i32* %6, align 4
  %27 = icmp slt i32 %26, 12
  br i1 %27, label %28, label %61

28:                                               ; preds = %25
  %29 = load i32, i32* %2, align 4
  %30 = load i32, i32* %6, align 4
  %31 = sext i32 %30 to i64
  %32 = getelementptr inbounds [12 x i32], [12 x i32]* %3, i64 0, i64 %31
  %33 = load i32, i32* %32, align 4
  %34 = add nsw i32 %29, %33
  %35 = icmp sgt i32 %34, 7
  br i1 %35, label %36, label %47

36:                                               ; preds = %28
  %37 = load i32, i32* %2, align 4
  %38 = load i32, i32* %6, align 4
  %39 = sext i32 %38 to i64
  %40 = getelementptr inbounds [12 x i32], [12 x i32]* %3, i64 0, i64 %39
  %41 = load i32, i32* %40, align 4
  %42 = add nsw i32 %37, %41
  %43 = sub nsw i32 %42, 7
  %44 = load i32, i32* %6, align 4
  %45 = sext i32 %44 to i64
  %46 = getelementptr inbounds [12 x i32], [12 x i32]* %3, i64 0, i64 %45
  store i32 %43, i32* %46, align 4
  br label %57

47:                                               ; preds = %28
  %48 = load i32, i32* %2, align 4
  %49 = load i32, i32* %6, align 4
  %50 = sext i32 %49 to i64
  %51 = getelementptr inbounds [12 x i32], [12 x i32]* %3, i64 0, i64 %50
  %52 = load i32, i32* %51, align 4
  %53 = add nsw i32 %48, %52
  %54 = load i32, i32* %6, align 4
  %55 = sext i32 %54 to i64
  %56 = getelementptr inbounds [12 x i32], [12 x i32]* %3, i64 0, i64 %55
  store i32 %53, i32* %56, align 4
  br label %57

57:                                               ; preds = %47, %36
  br label %58

58:                                               ; preds = %57
  %59 = load i32, i32* %6, align 4
  %60 = add nsw i32 %59, 1
  store i32 %60, i32* %6, align 4
  br label %25

61:                                               ; preds = %25
  store i32 0, i32* %6, align 4
  br label %62

62:                                               ; preds = %77, %61
  %63 = load i32, i32* %6, align 4
  %64 = icmp slt i32 %63, 12
  br i1 %64, label %65, label %80

65:                                               ; preds = %62
  %66 = load i32, i32* %6, align 4
  %67 = sext i32 %66 to i64
  %68 = getelementptr inbounds [12 x i32], [12 x i32]* %3, i64 0, i64 %67
  %69 = load i32, i32* %68, align 4
  %70 = icmp eq i32 %69, 5
  br i1 %70, label %71, label %76

71:                                               ; preds = %65
  %72 = load i32, i32* %6, align 4
  %73 = add nsw i32 %72, 1
  store i32 %73, i32* %5, align 4
  %74 = load i32, i32* %5, align 4
  %75 = call i32 (i8*, ...) @printf(i8* getelementptr inbounds ([4 x i8], [4 x i8]* @.str.1, i64 0, i64 0), i32 %74)
  br label %76

76:                                               ; preds = %71, %65
  br label %77

77:                                               ; preds = %76
  %78 = load i32, i32* %6, align 4
  %79 = add nsw i32 %78, 1
  store i32 %79, i32* %6, align 4
  br label %62

80:                                               ; preds = %62
  ret i32 0
}

; Function Attrs: argmemonly nounwind willreturn
declare void @llvm.memcpy.p0i8.p0i8.i64(i8* noalias nocapture writeonly, i8* noalias nocapture readonly, i64, i1 immarg) #1

declare dso_local i32 @__isoc99_scanf(i8*, ...) #2

declare dso_local i32 @printf(i8*, ...) #2


!llvm.module.flags = !{!0}
!llvm.ident = !{!1}

!0 = !{i32 1, !"wchar_size", i32 4}
!1 = !{!"clang version 10.0.0-4ubuntu1 "}
